target datalayout = "e-m:e-p270:32:32-p271:32:32-p272:64:64-i64:64-i128:128-f80:128-n8:16:32:64-S128"
target triple = "x86_64-pc-linux-gnu"

%struct._generic_SUNAdaptController_Ops = type { ptr, ptr, ptr, ptr, ptr, ptr, ptr, ptr, ptr, ptr, ptr }
%struct._generic_SUNAdaptController = type { ptr, ptr, ptr }

; Function Attrs: nounwind uwtable
define i32 @SUNAdaptController_UpdateMRIHTol(ptr noundef %0, double noundef %1, double noundef %2, double noundef %3, double noundef %4) #0 {
  %6 = alloca i32, align 4
  %7 = alloca ptr, align 8
  %8 = alloca double, align 8
  %9 = alloca double, align 8
  %10 = alloca double, align 8
  %11 = alloca double, align 8
  %12 = alloca i32, align 4
  %13 = alloca i32, align 4
  %14 = alloca ptr, align 8
  store ptr %0, ptr %7, align 8, !tbaa !8
  store double %1, ptr %8, align 8, !tbaa !28
  store double %2, ptr %9, align 8, !tbaa !28
  store double %3, ptr %10, align 8, !tbaa !28
  store double %4, ptr %11, align 8, !tbaa !28
  call void @llvm.lifetime.start.p0(i64 4, ptr %12) #4
  store i32 0, ptr %12, align 4, !tbaa !30
  %15 = load ptr, ptr %7, align 8, !tbaa !8
  %16 = icmp eq ptr %15, null
  br i1 %16, label %17, label %18

17:                                               ; preds = %5
  store i32 -9999, ptr %6, align 4
  store i32 1, ptr %13, align 4
  br label %42

18:                                               ; preds = %5
  call void @llvm.lifetime.start.p0(i64 8, ptr %14) #4
  %19 = load ptr, ptr %7, align 8, !tbaa !8
  %20 = getelementptr inbounds nuw %struct._generic_SUNAdaptController, ptr %19, i32 0, i32 2
  %21 = load ptr, ptr %20, align 8, !tbaa !27
  store ptr %21, ptr %14, align 8, !tbaa !3
  %22 = load ptr, ptr %7, align 8, !tbaa !8
  %23 = getelementptr inbounds nuw %struct._generic_SUNAdaptController, ptr %22, i32 0, i32 1
  %24 = load ptr, ptr %23, align 8, !tbaa !24
  %25 = getelementptr inbounds nuw %struct._generic_SUNAdaptController_Ops, ptr %24, i32 0, i32 9
  %26 = load ptr, ptr %25, align 8, !tbaa !22
  %27 = icmp ne ptr %26, null
  br i1 %27, label %28, label %40

28:                                               ; preds = %18
  %29 = load ptr, ptr %7, align 8, !tbaa !8
  %30 = getelementptr inbounds nuw %struct._generic_SUNAdaptController, ptr %29, i32 0, i32 1
  %31 = load ptr, ptr %30, align 8, !tbaa !24
  %32 = getelementptr inbounds nuw %struct._generic_SUNAdaptController_Ops, ptr %31, i32 0, i32 9
  %33 = load ptr, ptr %32, align 8, !tbaa !22
  %34 = load ptr, ptr %7, align 8, !tbaa !8
  %35 = load double, ptr %8, align 8, !tbaa !28
  %36 = load double, ptr %9, align 8, !tbaa !28
  %37 = load double, ptr %10, align 8, !tbaa !28
  %38 = load double, ptr %11, align 8, !tbaa !28
  %39 = call i32 %33(ptr noundef %34, double noundef %35, double noundef %36, double noundef %37, double noundef %38)
  store i32 %39, ptr %12, align 4, !tbaa !30
  br label %40

40:                                               ; preds = %28, %18
  %41 = load i32, ptr %12, align 4, !tbaa !30
  store i32 %41, ptr %6, align 4
  store i32 1, ptr %13, align 4
  call void @llvm.lifetime.end.p0(i64 8, ptr %14) #4
  br label %42

42:                                               ; preds = %40, %17
  call void @llvm.lifetime.end.p0(i64 4, ptr %12) #4
  %43 = load i32, ptr %6, align 4
  ret i32 %43
}