; Function Attrs: nounwind uwtable
define i32 @SUNAdaptController_UpdateMRIHTol(ptr noundef %0, double noundef %1, double noundef %2, double noundef %3, double noundef %4) local_unnamed_addr #4 {
  %6 = icmp eq ptr %0, null
  br i1 %6, label %14, label %7

7:                                                ; preds = %5
  %8 = getelementptr inbounds nuw i8, ptr %0, i64 8
  %9 = load ptr, ptr %8, align 8, !tbaa !3
  %10 = getelementptr inbounds nuw i8, ptr %9, i64 72
  %11 = load ptr, ptr %10, align 8, !tbaa !24
  %.not = icmp eq ptr %11, null
  br i1 %.not, label %14, label %12

12:                                               ; preds = %7
  %13 = tail call i32 %11(ptr noundef nonnull %0, double noundef %1, double noundef %2, double noundef %3, double noundef %4) #7
  br label %14

14:                                               ; preds = %7, %12, %5
  %.0 = phi i32 [ -9999, %5 ], [ %13, %12 ], [ 0, %7 ]
  ret i32 %.0
}